target datalayout = "e-m:e-p270:32:32-p271:32:32-p272:64:64-i64:64-i128:128-f80:128-n8:16:32:64-S128"
target triple = "x86_64-pc-linux-gnu"

%"struct.rocksdb::PerfContext" = type <{ %"struct.rocksdb::PerfContextBase", ptr, i8, [7 x i8] }>
%"struct.rocksdb::PerfContextBase" = type { i64, i64, i64, i64, i64, i64, i64, i64, i64, i64, i64, i64, i64, i64, i64, i64, i64, i64, i64, i64, i64, i64, i64, i64, i64, i64, i64, i64, i64, i64, i64, i64, i64, i64, i64, i64, i64, i64, i64, i64, i64, i64, i64, i64, i64, i64, i64, i64, i64, i64, i64, i64, i64, i64, i64, i64, i64, i64, i64, i64, i64, i64, i64, i64, i64, i64, i64, i64, i64, i64, i64, i64, i64, i64, i64, i64, i64, i64, i64, i64, i64, i64, i64, i64, i64, i64, i64, i64, i64, i64, i64, i64, i64, i64, i64, i64, i64, i64, i64, i64, i64, i64, i64, i64, i64, i64, i64 }
%"class.rocksdb::UserComparatorWrapper" = type { ptr }
%"class.rocksdb::Slice" = type { ptr, i64 }
%"struct.rocksdb::ParsedInternalKey" = type <{ %"class.rocksdb::Slice", i64, i8, [7 x i8] }>
%"class.rocksdb::CompareInterface" = type { ptr }
%"class.rocksdb::InternalKeyComparator" = type { %"class.rocksdb::CompareInterface", %"class.rocksdb::UserComparatorWrapper" }

@_ZN7rocksdb10perf_levelE = external thread_local global i8, align 1
@_ZN7rocksdb12perf_contextE = external thread_local global %"struct.rocksdb::PerfContext", align 8

; Function Attrs: uwtable
define linkonce_odr hidden noundef ptr @_ZTWN7rocksdb12perf_contextE() #10 comdat {
  %1 = icmp ne ptr @_ZTHN7rocksdb12perf_contextE, null
  br i1 %1, label %2, label %3

2:                                                ; preds = %0
  call void @_ZTHN7rocksdb12perf_contextE()
  br label %3

3:                                                ; preds = %2, %0
  %4 = call align 8 ptr @llvm.threadlocal.address.p0(ptr align 8 @_ZN7rocksdb12perf_contextE)
  ret ptr %4
}

; Function Attrs: uwtable
define linkonce_odr hidden noundef ptr @_ZTWN7rocksdb10perf_levelE() #10 comdat {
  %1 = icmp ne ptr @_ZTHN7rocksdb10perf_levelE, null
  br i1 %1, label %2, label %3

2:                                                ; preds = %0
  call void @_ZTHN7rocksdb10perf_levelE()
  br label %3

3:                                                ; preds = %2, %0
  %4 = call align 1 ptr @llvm.threadlocal.address.p0(ptr align 1 @_ZN7rocksdb10perf_levelE)
  ret ptr %4
}

; Function Attrs: mustprogress nounwind uwtable
define linkonce_odr void @_ZN7rocksdb5SliceC2EPKcm(ptr noundef nonnull align 8 dereferenceable(16) %0, ptr noundef %1, i64 noundef %2) unnamed_addr #5 comdat align 2 {
  %4 = alloca ptr, align 8
  %5 = alloca ptr, align 8
  %6 = alloca i64, align 8
  store ptr %0, ptr %4, align 8, !tbaa !13
  store ptr %1, ptr %5, align 8, !tbaa !24
  store i64 %2, ptr %6, align 8, !tbaa !4
  %7 = load ptr, ptr %4, align 8
  %8 = getelementptr inbounds nuw %"class.rocksdb::Slice", ptr %7, i32 0, i32 0
  %9 = load ptr, ptr %5, align 8, !tbaa !24
  store ptr %9, ptr %8, align 8, !tbaa !26
  %10 = getelementptr inbounds nuw %"class.rocksdb::Slice", ptr %7, i32 0, i32 1
  %11 = load i64, ptr %6, align 8, !tbaa !4
  store i64 %11, ptr %10, align 8, !tbaa !28
  ret void
}

; Function Attrs: inlinehint mustprogress nounwind uwtable
define linkonce_odr noundef i64 @_ZN7rocksdb13DecodeFixed64EPKc(ptr noundef %0) #1 comdat {
  %2 = alloca ptr, align 8
  %3 = alloca i64, align 8
  store ptr %0, ptr %2, align 8, !tbaa !24
  call void @llvm.lifetime.start.p0(i64 8, ptr %3) #6
  %4 = load ptr, ptr %2, align 8, !tbaa !24
  call void @llvm.memcpy.p0.p0.i64(ptr align 8 %3, ptr align 1 %4, i64 8, i1 false)
  %5 = load i64, ptr %3, align 8, !tbaa !4
  call void @llvm.lifetime.end.p0(i64 8, ptr %3) #6
  ret i64 %5
}

; Function Attrs: mustprogress nounwind uwtable
define linkonce_odr noundef i64 @_ZNK7rocksdb5Slice4sizeEv(ptr noundef nonnull align 8 dereferenceable(16) %0) #5 comdat align 2 {
  %2 = alloca ptr, align 8
  store ptr %0, ptr %2, align 8, !tbaa !13
  %3 = load ptr, ptr %2, align 8
  %4 = getelementptr inbounds nuw %"class.rocksdb::Slice", ptr %3, i32 0, i32 1
  %5 = load i64, ptr %4, align 8, !tbaa !28
  ret i64 %5
}

; Function Attrs: mustprogress nounwind uwtable
define linkonce_odr noundef ptr @_ZNK7rocksdb5Slice4dataEv(ptr noundef nonnull align 8 dereferenceable(16) %0) #5 comdat align 2 {
  %2 = alloca ptr, align 8
  store ptr %0, ptr %2, align 8, !tbaa !13
  %3 = load ptr, ptr %2, align 8
  %4 = getelementptr inbounds nuw %"class.rocksdb::Slice", ptr %3, i32 0, i32 0
  %5 = load ptr, ptr %4, align 8, !tbaa !26
  ret ptr %5
}

; Function Attrs: mustprogress uwtable
define linkonce_odr noundef i32 @_ZNK7rocksdb21UserComparatorWrapper7CompareERKNS_5SliceES3_(ptr noundef nonnull align 8 dereferenceable(8) %0, ptr noundef nonnull align 8 dereferenceable(16) %1, ptr noundef nonnull align 8 dereferenceable(16) %2) #3 comdat align 2 {
  %4 = alloca ptr, align 8
  %5 = alloca ptr, align 8
  %6 = alloca ptr, align 8
  store ptr %0, ptr %4, align 8, !tbaa !10
  store ptr %1, ptr %5, align 8, !tbaa !13
  store ptr %2, ptr %6, align 8, !tbaa !13
  %7 = load ptr, ptr %4, align 8
  %8 = call ptr @_ZTWN7rocksdb10perf_levelE()
  %9 = load i8, ptr %8, align 1, !tbaa !15
  %10 = zext i8 %9 to i32
  %11 = icmp sge i32 %10, 2
  br i1 %11, label %12, label %17

12:                                               ; preds = %3
  %13 = call ptr @_ZTWN7rocksdb12perf_contextE()
  %14 = getelementptr inbounds nuw %"struct.rocksdb::PerfContextBase", ptr %13, i32 0, i32 0
  %15 = load i64, ptr %14, align 8, !tbaa !17
  %16 = add i64 %15, 1
  store i64 %16, ptr %14, align 8, !tbaa !17
  br label %17

17:                                               ; preds = %12, %3
  %18 = getelementptr inbounds nuw %"class.rocksdb::UserComparatorWrapper", ptr %7, i32 0, i32 0
  %19 = load ptr, ptr %18, align 8, !tbaa !19
  %20 = getelementptr inbounds i8, ptr %19, i64 32
  %21 = load ptr, ptr %5, align 8, !tbaa !13
  %22 = load ptr, ptr %6, align 8, !tbaa !13
  %23 = load ptr, ptr %20, align 8, !tbaa !22
  %24 = getelementptr inbounds ptr, ptr %23, i64 2
  %25 = load ptr, ptr %24, align 8
  %26 = call noundef i32 %25(ptr noundef nonnull align 8 dereferenceable(8) %20, ptr noundef nonnull align 8 dereferenceable(16) %21, ptr noundef nonnull align 8 dereferenceable(16) %22)
  ret i32 %26
}

; Function Attrs: inlinehint mustprogress uwtable
define linkonce_odr { ptr, i64 } @_ZN7rocksdb14ExtractUserKeyERKNS_5SliceE(ptr noundef nonnull align 8 dereferenceable(16) %0) #4 comdat {
  %2 = alloca %"class.rocksdb::Slice", align 8
  %3 = alloca ptr, align 8
  store ptr %0, ptr %3, align 8, !tbaa !13
  %4 = load ptr, ptr %3, align 8, !tbaa !13
  %5 = call noundef ptr @_ZNK7rocksdb5Slice4dataEv(ptr noundef nonnull align 8 dereferenceable(16) %4)
  %6 = load ptr, ptr %3, align 8, !tbaa !13
  %7 = call noundef i64 @_ZNK7rocksdb5Slice4sizeEv(ptr noundef nonnull align 8 dereferenceable(16) %6)
  %8 = sub i64 %7, 8
  call void @_ZN7rocksdb5SliceC2EPKcm(ptr noundef nonnull align 8 dereferenceable(16) %2, ptr noundef %5, i64 noundef %8)
  %9 = load { ptr, i64 }, ptr %2, align 8
  ret { ptr, i64 } %9
}

; Function Attrs: mustprogress uwtable
define noundef i32 @_ZNK7rocksdb21InternalKeyComparator7CompareERKNS_5SliceERKNS_17ParsedInternalKeyE(ptr noundef nonnull align 8 dereferenceable(16) %0, ptr noundef nonnull align 8 dereferenceable(16) %1, ptr noundef nonnull align 8 dereferenceable(25) %2) #3 align 2 {
  %4 = alloca ptr, align 8
  %5 = alloca ptr, align 8
  %6 = alloca ptr, align 8
  %7 = alloca i32, align 4
  %8 = alloca %"class.rocksdb::Slice", align 8
  %9 = alloca i64, align 8
  %10 = alloca i64, align 8
  store ptr %0, ptr %4, align 8, !tbaa !61
  store ptr %1, ptr %5, align 8, !tbaa !13
  store ptr %2, ptr %6, align 8, !tbaa !31
  %11 = load ptr, ptr %4, align 8
  call void @llvm.lifetime.start.p0(i64 4, ptr %7) #6
  %12 = getelementptr inbounds nuw %"class.rocksdb::InternalKeyComparator", ptr %11, i32 0, i32 1
  call void @llvm.lifetime.start.p0(i64 16, ptr %8) #6
  %13 = load ptr, ptr %5, align 8, !tbaa !13
  %14 = call { ptr, i64 } @_ZN7rocksdb14ExtractUserKeyERKNS_5SliceE(ptr noundef nonnull align 8 dereferenceable(16) %13)
  %15 = getelementptr inbounds nuw { ptr, i64 }, ptr %8, i32 0, i32 0
  %16 = extractvalue { ptr, i64 } %14, 0
  store ptr %16, ptr %15, align 8
  %17 = getelementptr inbounds nuw { ptr, i64 }, ptr %8, i32 0, i32 1
  %18 = extractvalue { ptr, i64 } %14, 1
  store i64 %18, ptr %17, align 8
  %19 = load ptr, ptr %6, align 8, !tbaa !31
  %20 = getelementptr inbounds nuw %"struct.rocksdb::ParsedInternalKey", ptr %19, i32 0, i32 0
  %21 = call noundef i32 @_ZNK7rocksdb21UserComparatorWrapper7CompareERKNS_5SliceES3_(ptr noundef nonnull align 8 dereferenceable(8) %12, ptr noundef nonnull align 8 dereferenceable(16) %8, ptr noundef nonnull align 8 dereferenceable(16) %20)
  call void @llvm.lifetime.end.p0(i64 16, ptr %8) #6
  store i32 %21, ptr %7, align 4, !tbaa !55
  %22 = load i32, ptr %7, align 4, !tbaa !55
  %23 = icmp eq i32 %22, 0
  br i1 %23, label %24, label %52

24:                                               ; preds = %3
  call void @llvm.lifetime.start.p0(i64 8, ptr %9) #6
  %25 = load ptr, ptr %5, align 8, !tbaa !13
  %26 = call noundef ptr @_ZNK7rocksdb5Slice4dataEv(ptr noundef nonnull align 8 dereferenceable(16) %25)
  %27 = load ptr, ptr %5, align 8, !tbaa !13
  %28 = call noundef i64 @_ZNK7rocksdb5Slice4sizeEv(ptr noundef nonnull align 8 dereferenceable(16) %27)
  %29 = getelementptr inbounds nuw i8, ptr %26, i64 %28
  %30 = getelementptr inbounds i8, ptr %29, i64 -8
  %31 = call noundef i64 @_ZN7rocksdb13DecodeFixed64EPKc(ptr noundef %30)
  store i64 %31, ptr %9, align 8, !tbaa !4
  call void @llvm.lifetime.start.p0(i64 8, ptr %10) #6
  %32 = load ptr, ptr %6, align 8, !tbaa !31
  %33 = getelementptr inbounds nuw %"struct.rocksdb::ParsedInternalKey", ptr %32, i32 0, i32 1
  %34 = load i64, ptr %33, align 8, !tbaa !33
  %35 = shl i64 %34, 8
  %36 = load ptr, ptr %6, align 8, !tbaa !31
  %37 = getelementptr inbounds nuw %"struct.rocksdb::ParsedInternalKey", ptr %36, i32 0, i32 2
  %38 = load i8, ptr %37, align 8, !tbaa !35
  %39 = zext i8 %38 to i64
  %40 = or i64 %35, %39
  store i64 %40, ptr %10, align 8, !tbaa !4
  %41 = load i64, ptr %9, align 8, !tbaa !4
  %42 = load i64, ptr %10, align 8, !tbaa !4
  %43 = icmp ugt i64 %41, %42
  br i1 %43, label %44, label %45

44:                                               ; preds = %24
  store i32 -1, ptr %7, align 4, !tbaa !55
  br label %51

45:                                               ; preds = %24
  %46 = load i64, ptr %9, align 8, !tbaa !4
  %47 = load i64, ptr %10, align 8, !tbaa !4
  %48 = icmp ult i64 %46, %47
  br i1 %48, label %49, label %50

49:                                               ; preds = %45
  store i32 1, ptr %7, align 4, !tbaa !55
  br label %50

50:                                               ; preds = %49, %45
  br label %51

51:                                               ; preds = %50, %44
  call void @llvm.lifetime.end.p0(i64 8, ptr %10) #6
  call void @llvm.lifetime.end.p0(i64 8, ptr %9) #6
  br label %52

52:                                               ; preds = %51, %3
  %53 = load i32, ptr %7, align 4, !tbaa !55
  call void @llvm.lifetime.end.p0(i64 4, ptr %7) #6
  ret i32 %53
}