; Function Attrs: uwtable
define noundef i32 @_ZNK7rocksdb21InternalKeyComparator7CompareERKNS_5SliceERKNS_17ParsedInternalKeyE(ptr noundef nonnull readonly align 8 captures(none) dereferenceable(16) %0, ptr noundef nonnull readonly align 8 captures(none) dereferenceable(16) %1, ptr noundef nonnull align 8 dereferenceable(25) %2) local_unnamed_addr #8 align 2 {
  %4 = alloca %"class.rocksdb::Slice", align 8
  %5 = getelementptr inbounds nuw i8, ptr %0, i64 8
  call void @llvm.lifetime.start.p0(i64 16, ptr nonnull %4) #20
  %6 = load ptr, ptr %1, align 8, !tbaa !14
  %7 = getelementptr inbounds nuw i8, ptr %1, i64 8
  %8 = load i64, ptr %7, align 8, !tbaa !4
  %9 = add i64 %8, -8
  store ptr %6, ptr %4, align 8
  %10 = getelementptr inbounds nuw i8, ptr %4, i64 8
  store i64 %9, ptr %10, align 8
  %.not.i.i = icmp eq ptr @_ZTHN7rocksdb10perf_levelE, null
  br i1 %.not.i.i, label %_ZTWN7rocksdb10perf_levelE.exit.i, label %11

11:                                               ; preds = %3
  tail call void @_ZTHN7rocksdb10perf_levelE()
  br label %_ZTWN7rocksdb10perf_levelE.exit.i

_ZTWN7rocksdb10perf_levelE.exit.i:                ; preds = %11, %3
  %12 = tail call noundef align 1 ptr @llvm.threadlocal.address.p0(ptr align 1 @_ZN7rocksdb10perf_levelE)
  %13 = load i8, ptr %12, align 1, !tbaa !78
  %14 = icmp ugt i8 %13, 1
  br i1 %14, label %15, label %_ZNK7rocksdb21UserComparatorWrapper7CompareERKNS_5SliceES3_.exit

15:                                               ; preds = %_ZTWN7rocksdb10perf_levelE.exit.i
  %.not.i3.i = icmp eq ptr @_ZTHN7rocksdb12perf_contextE, null
  br i1 %.not.i3.i, label %_ZTWN7rocksdb12perf_contextE.exit.i, label %16

16:                                               ; preds = %15
  tail call void @_ZTHN7rocksdb12perf_contextE()
  br label %_ZTWN7rocksdb12perf_contextE.exit.i

_ZTWN7rocksdb12perf_contextE.exit.i:              ; preds = %16, %15
  %17 = tail call noundef align 8 ptr @llvm.threadlocal.address.p0(ptr align 8 @_ZN7rocksdb12perf_contextE)
  %18 = load i64, ptr %17, align 8, !tbaa !80
  %19 = add i64 %18, 1
  store i64 %19, ptr %17, align 8, !tbaa !80
  br label %_ZNK7rocksdb21UserComparatorWrapper7CompareERKNS_5SliceES3_.exit

_ZNK7rocksdb21UserComparatorWrapper7CompareERKNS_5SliceES3_.exit: ; preds = %_ZTWN7rocksdb10perf_levelE.exit.i, %_ZTWN7rocksdb12perf_contextE.exit.i
  %20 = load ptr, ptr %5, align 8, !tbaa !82
  %21 = getelementptr inbounds nuw i8, ptr %20, i64 32
  %22 = load ptr, ptr %21, align 8, !tbaa !35
  %23 = getelementptr inbounds nuw i8, ptr %22, i64 16
  %24 = load ptr, ptr %23, align 8
  %25 = call noundef i32 %24(ptr noundef nonnull align 8 dereferenceable(8) %21, ptr noundef nonnull align 8 dereferenceable(16) %4, ptr noundef nonnull align 8 dereferenceable(16) %2)
  call void @llvm.lifetime.end.p0(i64 16, ptr nonnull %4) #20
  %26 = icmp eq i32 %25, 0
  br i1 %26, label %27, label %42

27:                                               ; preds = %_ZNK7rocksdb21UserComparatorWrapper7CompareERKNS_5SliceES3_.exit
  %28 = load ptr, ptr %1, align 8, !tbaa !14
  %29 = load i64, ptr %7, align 8, !tbaa !4
  %30 = getelementptr inbounds nuw i8, ptr %28, i64 %29
  %31 = getelementptr inbounds i8, ptr %30, i64 -8
  %.0.copyload.i = load i64, ptr %31, align 1
  %32 = getelementptr inbounds nuw i8, ptr %2, i64 16
  %33 = load i64, ptr %32, align 8, !tbaa !15
  %34 = shl i64 %33, 8
  %35 = getelementptr inbounds nuw i8, ptr %2, i64 24
  %36 = load i8, ptr %35, align 8, !tbaa !18
  %37 = zext i8 %36 to i64
  %38 = or disjoint i64 %34, %37
  %39 = icmp ugt i64 %.0.copyload.i, %38
  br i1 %39, label %42, label %40

40:                                               ; preds = %27
  %41 = icmp ult i64 %.0.copyload.i, %38
  %spec.select = zext i1 %41 to i32
  br label %42

42:                                               ; preds = %40, %27, %_ZNK7rocksdb21UserComparatorWrapper7CompareERKNS_5SliceES3_.exit
  %.0 = phi i32 [ %25, %_ZNK7rocksdb21UserComparatorWrapper7CompareERKNS_5SliceES3_.exit ], [ -1, %27 ], [ %spec.select, %40 ]
  ret i32 %.0
}